MPASM 5.86                          MAIN.ASM   9-29-2023  15:53:08         PAGE  1


LOC  OBJECT CODE     LINE SOURCE TEXT
  VALUE

                      00001 ; Programme assembleur du TP1 de CE (Circuit Electronique), 26/09/2023, Adji TOURE & Benjamin Lepourtois
                      00002 ; PIC10F200
                      00003 ; LIST p=PIC10F200
                      00004 #include p10f200.inc
                      00001         LIST
                      00002 
                      00003 ;==========================================================================
                      00004 ; Build date : Oct 24 2019
                      00005 ;  MPASM PIC10F200 processor include
                      00006 ; 
                      00007 ;  (c) Copyright 1999-2019 Microchip Technology, All rights reserved
                      00008 ;==========================================================================
                      00009 
                      00152         LIST
                      00005 
Warning[205]: Found directive in column 1. (__CONFIG)
0FFF   0FEB           00006 __CONFIG _WDTE_OFF & _CP_OFF & _MCLRE_OFF
                      00007 
  00000003            00008 STATUS equ 03h
  00000005            00009 OSCCAL equ 05h
  00000006            00010 GPIO equ 06h
  00000000            00011 GP0 equ 00h
  00000001            00012 GP1 equ 01h
  00000002            00013 GP2 equ 02h
  00000003            00014 GP3 equ 03h
  00000010            00015 var1 equ 10h
  00000011            00016 temp0 equ 11h
  00000012            00017 temp1 equ 12h
  00000013            00018 temp2 equ 13h
                      00019 
                      00020 ; Start
                      00021     ORG 0X000
                      00022 
0000   0025           00023     movwf OSCCAL
0001   0A??           00024     goto main
                      00025 
                      00026     ORG 0X020
                      00027 
                      00028 ; Set up
0020                  00029 main:   
0020   0CCF           00030     movlw 0CFh
0021   0002           00031     option
0022   0CF1           00032     movlw 0F1h
0023   0006           00033     tris GPIO
0024   0A??           00034     goto loop ; Va dans la boucle infinie
                      00035 
                      00036 ; Programme principal
                      00037 ; La boucle infinie
0025                  00038 loop:
                      00039     ; Détection de mouvement ?
0025   0706           00040     btfss GPIO, GP0   ; Skip la prochaine instruction si un mouvement est détecté
0026   0A??           00041     goto loop
                      00042     
MPASM 5.86                          MAIN.ASM   9-29-2023  15:53:08         PAGE  2


LOC  OBJECT CODE     LINE SOURCE TEXT
  VALUE

                      00043     ; Allume la LED et le buzzer
0027   0426           00044     bcf GPIO, GP1; led
0028   0546           00045     bsf GPIO, GP2 ; buzzer
                      00046     
                      00047     ; Attend 2s
0029   0C20           00048     movlw 20
002A   0033           00049     movwf temp2
002B   09??           00050     call timer_2s
                      00051     
                      00052     ; Eteind le buzzer
002C   0446           00053     bcf GPIO, GP2 ; buzzer
                      00054     
                      00055     ; Détecte s'il n'y a plus de mouvement
Warning[207]: Found label after column 1. (TAG)
002D                  00056     TAG:
002D   0606           00057     btfsc GPIO, GP0
002E   0A??           00058     goto TAG
                      00059     
                      00060     ; Eteind la LED
002F   0526           00061     bsf GPIO, GP1
                      00062           
                      00063     ; Saut vers le début de la boucle infinie
0030   0A??           00064     goto loop 
                      00065     
0031                  00066 timer_2s:
Warning[202]: Argument out of range.  Least significant bits used.
0031   0C50           00067     movlw 250
0032   0031           00068     movwf temp0
Warning[202]: Argument out of range.  Least significant bits used.
0033   0C00           00069     movlw 100
0034   0032           00070     movwf temp1
Warning[207]: Found label after column 1. (timer_100ms)
0035                  00071     timer_100ms:
0035   0000           00072         nop
0036   0000           00073         nop
0037   0000           00074         nop
                      00075         ; Décrémente la variable temp1
0038   02F1           00076         decfsz temp0, 1
                      00077         ; Si temp1 n'est pas encore à zéro, retourne à la boucle
0039   0A??           00078         goto timer_100ms
                      00079         ; Décrémente la variable temp0
003A   02F2           00080         decfsz temp1, 1
                      00081         ; Si temp0 n'est pas encore à zéro, retourne à la boucle
003B   0A??           00082         goto timer_100ms    
                      00083     ; Décrémente la variable temp2
003C   02F3           00084     decfsz temp2, 1
003D   0A??           00085     goto timer_2s
003E   0800           00086     retlw 0
                      00087 
Warning[205]: Found directive in column 1. (END)
0FEB                  00088 END
MPASM 5.86                          MAIN.ASM   9-29-2023  15:53:08         PAGE  3


SYMBOL TABLE
  LABEL                             VALUE 

C                                 00000000
CAL0                              00000001
CAL1                              00000002
CAL2                              00000003
CAL3                              00000004
CAL4                              00000005
CAL5                              00000006
CAL6                              00000007
DC                                00000001
F                                 00000001
FOSC4                             00000000
FSR                               00000004
GP0                               00000000
GP1                               00000001
GP2                               00000002
GP3                               00000003
GPIO                              00000006
GPWUF                             00000007
INDF                              00000000
NOT_GPPU                          00000006
NOT_GPWU                          00000007
NOT_PD                            00000003
NOT_TO                            00000004
OSCCAL                            00000005
PCL                               00000002
PS0                               00000000
PS1                               00000001
PS2                               00000002
PSA                               00000003
STATUS                            00000003
T0CS                              00000005
T0SE                              00000004
TAG                               0000002D
TMR0                              00000001
TRISIO0                           00000000
TRISIO1                           00000001
TRISIO2                           00000002
TRISIO3                           00000003
W                                 00000000
Z                                 00000002
_CONFIG                           00000FFF
_CP_OFF                           00000FFF
_CP_ON                            00000FF7
_IDLOC0                           00000100
_IDLOC1                           00000101
_IDLOC2                           00000102
_IDLOC3                           00000103
_IntRC_OSC                        00000FFF
_MCLRE_OFF                        00000FEF
_MCLRE_ON                         00000FFF
_OSC_IntRC                        00000FFF
_WDTE_OFF                         00000FFB
_WDTE_ON                          00000FFF
MPASM 5.86                          MAIN.ASM   9-29-2023  15:53:08         PAGE  4


SYMBOL TABLE
  LABEL                             VALUE 

_WDT_OFF                          00000FFB
_WDT_ON                           00000FFF
__10F200                          00000001
loop                              00000025
main                              00000020
temp0                             00000011
temp1                             00000012
temp2                             00000013
timer_100ms                       00000035
timer_2s                          00000031
var1                              00000010

Errors   :     0
Warnings :     6 reported,     0 suppressed
Messages :     0 reported,     0 suppressed

