MPASM 5.86                          MAIN.ASM   9-27-2023  9:56:31         PAGE  1


LOC  OBJECT CODE     LINE SOURCE TEXT
  VALUE

                      00001 ; Programme assembleur du TP1 de CE (Circuit Electronique), 26/09/2023, Adji TOURE & Benjamin Lepourtois
                      00002 ; PIC10F200
                      00003 ; LIST p=PIC10F200
                      00004 #include p10f200.inc
                      00001         LIST
                      00002 
                      00003 ;==========================================================================
                      00004 ; Build date : Oct 24 2019
                      00005 ;  MPASM PIC10F200 processor include
                      00006 ; 
                      00007 ;  (c) Copyright 1999-2019 Microchip Technology, All rights reserved
                      00008 ;==========================================================================
                      00009 
                      00152         LIST
                      00005 
Warning[205]: Found directive in column 1. (__CONFIG)
0FFF   0FEB           00006 __CONFIG _WDTE_OFF & _CP_OFF & _MCLRE_OFF
                      00007 
  00000003            00008 STATUS equ 03h
  00000005            00009 OSCCAL equ 05h
  00000006            00010 GPIO equ 06h
  00000000            00011 GP0 equ 00h
  00000001            00012 GP1 equ 01h
  00000002            00013 GP2 equ 02h
  00000003            00014 GP3 equ 03h
  00000010            00015 var1 equ 10h
  00000011            00016 temp0 equ 11h
  00000012            00017 temp1 equ 12h
                      00018 
                      00019 ; Start
                      00020     ORG 0X000
                      00021 
0000   0025           00022     movwf OSCCAL
0001   0A??           00023     goto main
                      00024 
                      00025     ORG 0X020
                      00026 
                      00027 ; Set up
0020   0CCF           00028 main:   movlw 0CFh
0021   0002           00029     option
0022   0CF8           00030     movlw 0F8h
0023   0006           00031     tris GPIO
0024   0A??           00032     goto loop ; Va dans la boucle infinie
                      00033 
                      00034 ; Programme principal
                      00035         
                      00036 ; La boucle infinie
0025                  00037 loop:
                      00038     ; Lecture de l'état de GP3
0025   0766           00039     btfss GPIO, GP3   ; Vérifie si GP3 est à 1 (bit test skip if set)
0026   0A??           00040     goto gp3_is_clear   ; Saute à "gp3_is_clear" si GP3 est à 0 (LOW)
                      00041 
                      00042     ; Mettre à 0 (LOW) GP0
MPASM 5.86                          MAIN.ASM   9-27-2023  9:56:31         PAGE  2


LOC  OBJECT CODE     LINE SOURCE TEXT
  VALUE

0027   0406           00043     bcf GPIO, GP0
                      00044     
                      00045     ; Saut vers le début de la boucle infinie
0028   0A??           00046     goto loop
                      00047 
0029                  00048 gp3_is_clear:
                      00049     ; Mettre à 1 (HIGH) GP0
0029   0506           00050     bsf GPIO, GP0
                      00051     
                      00052     ;movlw 1
                      00053     ;movwf var1
                      00054     
                      00055     ; Charge la valeur 250 (en décimal) dans WREG
Warning[202]: Argument out of range.  Least significant bits used.
002A   0C50           00056     movlw 250
                      00057     ; Stocke la valeur de WREG à l'adresse mémoire temp0 (0x11h)
002B   0031           00058     movwf temp0
                      00059     ; Stocke la valeur de WREG aussi à l'adresse mémoire temp1 (0x12h)
002C   0032           00060     movwf temp1
                      00061     
                      00062     ; Attend 250ms
002D   0A??           00063     goto timer_250ms
                      00064     
002E                  00065 timer_250ms:
002E   0000           00066     nop
002F   0000           00067     nop
0030   0000           00068     nop
0031   0000           00069     nop
0032   0000           00070     nop
0033   0000           00071     nop
0034   0000           00072     nop
0035   0000           00073     nop
0036   0000           00074     nop
0037   0000           00075     nop
0038   0000           00076     nop
0039   0000           00077     nop
003A   0000           00078     nop
003B   0000           00079     nop
003C   0000           00080     nop
003D   0000           00081     nop
003E   0000           00082     nop
003F   0000           00083     nop
0040   0000           00084     nop
0041   0000           00085     nop
0042   0000           00086     nop
0043   0000           00087     nop
0044   0000           00088     nop
0045   0000           00089     nop
0046   0000           00090     nop
0047   0000           00091     nop
0048   0000           00092     nop
0049   0000           00093     nop
004A   0000           00094     nop
MPASM 5.86                          MAIN.ASM   9-27-2023  9:56:31         PAGE  3


LOC  OBJECT CODE     LINE SOURCE TEXT
  VALUE

004B   0000           00095     nop
004C   0000           00096     nop
004D   0000           00097     nop
004E   0000           00098     nop
004F   0000           00099     nop
                      00100     ; Décrémente la variable temp1
0050   02F2           00101     decfsz temp1, 1
                      00102     ; Si temp1 n'est pas encore à zéro, retourne à la boucle
0051   0A??           00103     goto timer_250ms
                      00104     ; Décrémente la variable temp0
0052   02F1           00105     decfsz temp0, 1
                      00106     ; Si temp0 n'est pas encore à zéro, retourne à la boucle
0053   0A??           00107     goto timer_250ms
                      00108 
Warning[205]: Found directive in column 1. (END)
0FEB                  00109 END
MPASM 5.86                          MAIN.ASM   9-27-2023  9:56:31         PAGE  4


SYMBOL TABLE
  LABEL                             VALUE 

C                                 00000000
CAL0                              00000001
CAL1                              00000002
CAL2                              00000003
CAL3                              00000004
CAL4                              00000005
CAL5                              00000006
CAL6                              00000007
DC                                00000001
F                                 00000001
FOSC4                             00000000
FSR                               00000004
GP0                               00000000
GP1                               00000001
GP2                               00000002
GP3                               00000003
GPIO                              00000006
GPWUF                             00000007
INDF                              00000000
NOT_GPPU                          00000006
NOT_GPWU                          00000007
NOT_PD                            00000003
NOT_TO                            00000004
OSCCAL                            00000005
PCL                               00000002
PS0                               00000000
PS1                               00000001
PS2                               00000002
PSA                               00000003
STATUS                            00000003
T0CS                              00000005
T0SE                              00000004
TMR0                              00000001
TRISIO0                           00000000
TRISIO1                           00000001
TRISIO2                           00000002
TRISIO3                           00000003
W                                 00000000
Z                                 00000002
_CONFIG                           00000FFF
_CP_OFF                           00000FFF
_CP_ON                            00000FF7
_IDLOC0                           00000100
_IDLOC1                           00000101
_IDLOC2                           00000102
_IDLOC3                           00000103
_IntRC_OSC                        00000FFF
_MCLRE_OFF                        00000FEF
_MCLRE_ON                         00000FFF
_OSC_IntRC                        00000FFF
_WDTE_OFF                         00000FFB
_WDTE_ON                          00000FFF
_WDT_OFF                          00000FFB
MPASM 5.86                          MAIN.ASM   9-27-2023  9:56:31         PAGE  5


SYMBOL TABLE
  LABEL                             VALUE 

_WDT_ON                           00000FFF
__10F200                          00000001
gp3_is_clear                      00000029
loop                              00000025
main                              00000020
temp0                             00000011
temp1                             00000012
timer_250ms                       0000002E
var1                              00000010

Errors   :     0
Warnings :     3 reported,     0 suppressed
Messages :     0 reported,     0 suppressed

